; Function Attrs: nounwind uwtable
define ptr @Dar_NewChoiceSynthesis(ptr noundef %0, i32 noundef %1, i32 noundef %2, i32 noundef %3, i32 noundef %4, i32 noundef %5) local_unnamed_addr #0 {
  %.not = icmp eq i32 %2, 0
  br i1 %.not, label %Vec_PtrPush.exit64, label %7

7:                                                ; preds = %6
  %8 = getelementptr inbounds nuw i8, ptr %0, i64 32
  %9 = load ptr, ptr %8, align 8, !tbaa !47
  %10 = getelementptr i8, ptr %9, i64 4
  %.val12.i = load i32, ptr %10, align 4, !tbaa !38
  %11 = icmp sgt i32 %.val12.i, 0
  br i1 %11, label %.lr.ph.i, label %Vec_PtrPush.exit64

.lr.ph.i:                                         ; preds = %7
  %12 = getelementptr i8, ptr %9, i64 8
  %.val.i = load ptr, ptr %12, align 8, !tbaa !36
  %wide.trip.count.i = zext nneg i32 %.val12.i to i64
  br label %13

13:                                               ; preds = %26, %.lr.ph.i
  %indvars.iv.i = phi i64 [ 0, %.lr.ph.i ], [ %indvars.iv.next.i, %26 ]
  %.017.i = phi i32 [ 0, %.lr.ph.i ], [ %.1.i, %26 ]
  %14 = getelementptr inbounds nuw ptr, ptr %.val.i, i64 %indvars.iv.i
  %15 = load ptr, ptr %14, align 8, !tbaa !37
  %16 = icmp eq ptr %15, null
  br i1 %16, label %26, label %17

17:                                               ; preds = %13
  %18 = getelementptr i8, ptr %15, i64 24
  %.val13.i = load i64, ptr %18, align 8
  %19 = trunc i64 %.val13.i to i32
  %20 = and i32 %19, 7
  %21 = add nsw i32 %20, -5
  %narrow.i.i = icmp ult i32 %21, 2
  %22 = icmp ugt i32 %19, 64063
  %or.cond.i = and i1 %22, %narrow.i.i
  br i1 %or.cond.i, label %23, label %26

23:                                               ; preds = %17
  %24 = udiv i32 %19, 64000
  %25 = add nsw i32 %24, %.017.i
  br label %26

26:                                               ; preds = %23, %17, %13
  %.1.i = phi i32 [ %.017.i, %13 ], [ %25, %23 ], [ %.017.i, %17 ]
  %indvars.iv.next.i = add nuw nsw i64 %indvars.iv.i, 1
  %exitcond.not.i = icmp eq i64 %indvars.iv.next.i, %wide.trip.count.i
  br i1 %exitcond.not.i, label %Dar_NewChoiceSynthesisGuard.exit, label %13, !llvm.loop !48

Dar_NewChoiceSynthesisGuard.exit:                 ; preds = %26
  %27 = icmp slt i32 %.1.i, 11
  br i1 %27, label %Vec_PtrPush.exit64, label %28

28:                                               ; preds = %Dar_NewChoiceSynthesisGuard.exit
  %.not40 = icmp eq i32 %5, 0
  br i1 %.not40, label %Vec_PtrPush.exit64, label %29

29:                                               ; preds = %28
  %puts = tail call i32 @puts(ptr nonnull dereferenceable(1) @str)
  br label %Vec_PtrPush.exit64

Vec_PtrPush.exit64:                               ; preds = %6, %Dar_NewChoiceSynthesisGuard.exit, %29, %28, %7
  %.037 = phi i32 [ %2, %Dar_NewChoiceSynthesisGuard.exit ], [ 0, %6 ], [ 0, %29 ], [ 0, %28 ], [ %2, %7 ]
  %30 = tail call noalias dereferenceable_or_null(16) ptr @malloc(i64 noundef 16) #14
  %31 = getelementptr inbounds nuw i8, ptr %30, i64 4
  store i32 8, ptr %30, align 8, !tbaa !34
  %32 = tail call noalias dereferenceable_or_null(64) ptr @malloc(i64 noundef 64) #14
  %33 = getelementptr inbounds nuw i8, ptr %30, i64 8
  store ptr %32, ptr %33, align 8, !tbaa !36
  %34 = tail call ptr @Gia_ManFromAig(ptr noundef %0) #13
  store ptr %34, ptr %32, align 8, !tbaa !37
  %35 = tail call ptr @Dar_NewCompress(ptr noundef %0, i32 noundef %1, i32 noundef %.037, i32 noundef %3, i32 noundef %5)
  %36 = tail call ptr @Gia_ManFromAig(ptr noundef %35) #13
  %37 = getelementptr inbounds nuw i8, ptr %32, i64 8
  store ptr %36, ptr %37, align 8, !tbaa !37
  %38 = tail call ptr @Dar_NewCompress2(ptr noundef %35, i32 noundef %1, i32 noundef %.037, i32 noundef 1, i32 noundef %3, i32 noundef %4, i32 noundef %5)
  %39 = tail call ptr @Gia_ManFromAig(ptr noundef %38) #13
  %40 = getelementptr inbounds nuw i8, ptr %32, i64 16
  store ptr %39, ptr %40, align 8, !tbaa !37
  tail call void @Aig_ManStop(ptr noundef %38) #13
  %41 = load ptr, ptr %32, align 8, !tbaa !37
  %42 = load ptr, ptr %40, align 8, !tbaa !37
  store i32 3, ptr %31, align 4, !tbaa !38
  store ptr %41, ptr %40, align 8, !tbaa !37
  store ptr %42, ptr %32, align 8, !tbaa !37
  %43 = tail call ptr @Gia_ManChoiceMiter(ptr noundef nonnull %30) #13
  %.val4367 = load i32, ptr %31, align 4, !tbaa !38
  %44 = icmp sgt i32 %.val4367, 0
  br i1 %44, label %.lr.ph, label %.critedge

.lr.ph:                                           ; preds = %Vec_PtrPush.exit64, %.lr.ph
  %indvars.iv = phi i64 [ %indvars.iv.next, %.lr.ph ], [ 0, %Vec_PtrPush.exit64 ]
  %.val = load ptr, ptr %33, align 8, !tbaa !36
  %45 = getelementptr inbounds nuw ptr, ptr %.val, i64 %indvars.iv
  %46 = load ptr, ptr %45, align 8, !tbaa !37
  tail call void @Gia_ManStop(ptr noundef %46) #13
  %indvars.iv.next = add nuw nsw i64 %indvars.iv, 1
  %.val43 = load i32, ptr %31, align 4, !tbaa !38
  %47 = sext i32 %.val43 to i64
  %48 = icmp slt i64 %indvars.iv.next, %47
  br i1 %48, label %.lr.ph, label %.critedge, !llvm.loop !49

.critedge:                                        ; preds = %.lr.ph, %Vec_PtrPush.exit64
  %49 = load ptr, ptr %33, align 8, !tbaa !36
  %.not.i = icmp eq ptr %49, null
  br i1 %.not.i, label %Vec_PtrFree.exit, label %50

50:                                               ; preds = %.critedge
  tail call void @free(ptr noundef nonnull %49) #13
  br label %Vec_PtrFree.exit

Vec_PtrFree.exit:                                 ; preds = %.critedge, %50
  tail call void @free(ptr noundef nonnull %30) #13
  ret ptr %43
}